target datalayout = "e-m:e-p270:32:32-p271:32:32-p272:64:64-i64:64-i128:128-f80:128-n8:16:32:64-S128"
target triple = "x86_64-pc-linux-gnu"

%"struct.i18n::phonenumbers::(anonymous namespace)::NumberTest" = type { %"class.std::__cxx11::basic_string", %"class.std::__cxx11::basic_string" }
%"class.std::__cxx11::basic_string" = type { %"struct.std::__cxx11::basic_string<char>::_Alloc_hider", i64, %union.anon }
%"struct.std::__cxx11::basic_string<char>::_Alloc_hider" = type { ptr }
%union.anon = type { i64, [8 x i8] }
%"class.std::vector.54" = type { %"struct.std::_Vector_base.55" }
%"struct.std::_Vector_base.55" = type { %"struct.std::_Vector_base<i18n::phonenumbers::(anonymous namespace)::NumberTest, std::allocator<i18n::phonenumbers::(anonymous namespace)::NumberTest>>::_Vector_impl" }
%"struct.std::_Vector_base<i18n::phonenumbers::(anonymous namespace)::NumberTest, std::allocator<i18n::phonenumbers::(anonymous namespace)::NumberTest>>::_Vector_impl" = type { %"struct.std::_Vector_base<i18n::phonenumbers::(anonymous namespace)::NumberTest, std::allocator<i18n::phonenumbers::(anonymous namespace)::NumberTest>>::_Vector_impl_data" }
%"struct.std::_Vector_base<i18n::phonenumbers::(anonymous namespace)::NumberTest, std::allocator<i18n::phonenumbers::(anonymous namespace)::NumberTest>>::_Vector_impl_data" = type { ptr, ptr, ptr }
%"class.__gnu_cxx::__normal_iterator.59" = type { ptr }
%"class.__gnu_cxx::__normal_iterator" = type { ptr }

@_ZN4i18n12phonenumbersL18kPossibleOnlyCasesE = internal global [5 x %"struct.i18n::phonenumbers::(anonymous namespace)::NumberTest"] zeroinitializer, align 16
@_ZN4i18n12phonenumbersL11kValidCasesE = internal global [19 x %"struct.i18n::phonenumbers::(anonymous namespace)::NumberTest"] zeroinitializer, align 16
@_ZN4i18n12phonenumbersL20kStrictGroupingCasesE = internal global [7 x %"struct.i18n::phonenumbers::(anonymous namespace)::NumberTest"] zeroinitializer, align 16
@_ZN4i18n12phonenumbersL19kExactGroupingCasesE = internal global [25 x %"struct.i18n::phonenumbers::(anonymous namespace)::NumberTest"] zeroinitializer, align 16

; Function Attrs: mustprogress nounwind uwtable
define internal void @_ZNSt15__new_allocatorIN4i18n12phonenumbers12_GLOBAL__N_110NumberTestEEC2Ev(ptr noundef nonnull align 1 dereferenceable(1) %0) unnamed_addr #5 align 2 {
  %2 = alloca ptr, align 8
  store ptr %0, ptr %2, align 8
  ret void
}

; Function Attrs: mustprogress nounwind uwtable
define internal void @_ZNSt12_Vector_baseIN4i18n12phonenumbers12_GLOBAL__N_110NumberTestESaIS3_EE17_Vector_impl_dataC2Ev(ptr noundef nonnull align 8 dereferenceable(24) %0) unnamed_addr #5 align 2 {
  %2 = alloca ptr, align 8
  store ptr %0, ptr %2, align 8
  %3 = load ptr, ptr %2, align 8
  %4 = getelementptr inbounds %"struct.std::_Vector_base<i18n::phonenumbers::(anonymous namespace)::NumberTest, std::allocator<i18n::phonenumbers::(anonymous namespace)::NumberTest>>::_Vector_impl_data", ptr %3, i32 0, i32 0
  store ptr null, ptr %4, align 8
  %5 = getelementptr inbounds %"struct.std::_Vector_base<i18n::phonenumbers::(anonymous namespace)::NumberTest, std::allocator<i18n::phonenumbers::(anonymous namespace)::NumberTest>>::_Vector_impl_data", ptr %3, i32 0, i32 1
  store ptr null, ptr %5, align 8
  %6 = getelementptr inbounds %"struct.std::_Vector_base<i18n::phonenumbers::(anonymous namespace)::NumberTest, std::allocator<i18n::phonenumbers::(anonymous namespace)::NumberTest>>::_Vector_impl_data", ptr %3, i32 0, i32 2
  store ptr null, ptr %6, align 8
  ret void
}

; Function Attrs: mustprogress nounwind uwtable
define internal void @_ZNSaIN4i18n12phonenumbers12_GLOBAL__N_110NumberTestEEC2Ev(ptr noundef nonnull align 1 dereferenceable(1) %0) unnamed_addr #5 align 2 {
  %2 = alloca ptr, align 8
  store ptr %0, ptr %2, align 8
  %3 = load ptr, ptr %2, align 8
  call void @_ZNSt15__new_allocatorIN4i18n12phonenumbers12_GLOBAL__N_110NumberTestEEC2Ev(ptr noundef nonnull align 1 dereferenceable(1) %3) #3
  ret void
}

; Function Attrs: mustprogress nounwind uwtable
define internal void @_ZNSt12_Vector_baseIN4i18n12phonenumbers12_GLOBAL__N_110NumberTestESaIS3_EE12_Vector_implC2Ev(ptr noundef nonnull align 8 dereferenceable(24) %0) unnamed_addr #5 align 2 {
  %2 = alloca ptr, align 8
  store ptr %0, ptr %2, align 8
  %3 = load ptr, ptr %2, align 8
  call void @_ZNSaIN4i18n12phonenumbers12_GLOBAL__N_110NumberTestEEC2Ev(ptr noundef nonnull align 1 dereferenceable(1) %3) #3
  call void @_ZNSt12_Vector_baseIN4i18n12phonenumbers12_GLOBAL__N_110NumberTestESaIS3_EE17_Vector_impl_dataC2Ev(ptr noundef nonnull align 8 dereferenceable(24) %3) #3
  ret void
}

; Function Attrs: mustprogress nounwind uwtable
define internal noundef nonnull align 8 dereferenceable(8) ptr @_ZNK9__gnu_cxx17__normal_iteratorIPN4i18n12phonenumbers12_GLOBAL__N_110NumberTestESt6vectorIS4_SaIS4_EEE4baseEv(ptr noundef nonnull align 8 dereferenceable(8) %0) #5 align 2 {
  %2 = alloca ptr, align 8
  store ptr %0, ptr %2, align 8
  %3 = load ptr, ptr %2, align 8
  %4 = getelementptr inbounds %"class.__gnu_cxx::__normal_iterator", ptr %3, i32 0, i32 0
  ret ptr %4
}

; Function Attrs: mustprogress nounwind uwtable
define internal void @_ZN9__gnu_cxx17__normal_iteratorIPN4i18n12phonenumbers12_GLOBAL__N_110NumberTestESt6vectorIS4_SaIS4_EEEC2ERKS5_(ptr noundef nonnull align 8 dereferenceable(8) %0, ptr noundef nonnull align 8 dereferenceable(8) %1) unnamed_addr #5 align 2 {
  %3 = alloca ptr, align 8
  %4 = alloca ptr, align 8
  store ptr %0, ptr %3, align 8
  store ptr %1, ptr %4, align 8
  %5 = load ptr, ptr %3, align 8
  %6 = getelementptr inbounds %"class.__gnu_cxx::__normal_iterator", ptr %5, i32 0, i32 0
  %7 = load ptr, ptr %4, align 8
  %8 = load ptr, ptr %7, align 8
  store ptr %8, ptr %6, align 8
  ret void
}

; Function Attrs: mustprogress nounwind uwtable
define internal void @_ZNSt12_Vector_baseIN4i18n12phonenumbers12_GLOBAL__N_110NumberTestESaIS3_EEC2Ev(ptr noundef nonnull align 8 dereferenceable(24) %0) unnamed_addr #5 align 2 {
  %2 = alloca ptr, align 8
  store ptr %0, ptr %2, align 8
  %3 = load ptr, ptr %2, align 8
  %4 = getelementptr inbounds %"struct.std::_Vector_base.55", ptr %3, i32 0, i32 0
  call void @_ZNSt12_Vector_baseIN4i18n12phonenumbers12_GLOBAL__N_110NumberTestESaIS3_EE12_Vector_implC2Ev(ptr noundef nonnull align 8 dereferenceable(24) %4) #3
  ret void
}

; Function Attrs: mustprogress nounwind uwtable
define internal void @_ZN9__gnu_cxx17__normal_iteratorIPKN4i18n12phonenumbers12_GLOBAL__N_110NumberTestESt6vectorIS4_SaIS4_EEEC2IPS4_vEERKNS0_IT_S9_EE(ptr noundef nonnull align 8 dereferenceable(8) %0, ptr noundef nonnull align 8 dereferenceable(8) %1) unnamed_addr #5 align 2 {
  %3 = alloca ptr, align 8
  %4 = alloca ptr, align 8
  store ptr %0, ptr %3, align 8
  store ptr %1, ptr %4, align 8
  %5 = load ptr, ptr %3, align 8
  %6 = getelementptr inbounds %"class.__gnu_cxx::__normal_iterator.59", ptr %5, i32 0, i32 0
  %7 = load ptr, ptr %4, align 8
  %8 = call noundef nonnull align 8 dereferenceable(8) ptr @_ZNK9__gnu_cxx17__normal_iteratorIPN4i18n12phonenumbers12_GLOBAL__N_110NumberTestESt6vectorIS4_SaIS4_EEE4baseEv(ptr noundef nonnull align 8 dereferenceable(8) %7) #3
  %9 = load ptr, ptr %8, align 8
  store ptr %9, ptr %6, align 8
  ret void
}

; Function Attrs: mustprogress nounwind uwtable
define internal ptr @_ZNSt6vectorIN4i18n12phonenumbers12_GLOBAL__N_110NumberTestESaIS3_EE5beginEv(ptr noundef nonnull align 8 dereferenceable(24) %0) #5 align 2 {
  %2 = alloca %"class.__gnu_cxx::__normal_iterator", align 8
  %3 = alloca ptr, align 8
  store ptr %0, ptr %3, align 8
  %4 = load ptr, ptr %3, align 8
  %5 = getelementptr inbounds %"struct.std::_Vector_base.55", ptr %4, i32 0, i32 0
  %6 = getelementptr inbounds %"struct.std::_Vector_base<i18n::phonenumbers::(anonymous namespace)::NumberTest, std::allocator<i18n::phonenumbers::(anonymous namespace)::NumberTest>>::_Vector_impl_data", ptr %5, i32 0, i32 0
  call void @_ZN9__gnu_cxx17__normal_iteratorIPN4i18n12phonenumbers12_GLOBAL__N_110NumberTestESt6vectorIS4_SaIS4_EEEC2ERKS5_(ptr noundef nonnull align 8 dereferenceable(8) %2, ptr noundef nonnull align 8 dereferenceable(8) %6) #3
  %7 = getelementptr inbounds %"class.__gnu_cxx::__normal_iterator", ptr %2, i32 0, i32 0
  %8 = load ptr, ptr %7, align 8
  ret ptr %8
}

; Function Attrs: mustprogress nounwind uwtable
define internal void @_ZNSt6vectorIN4i18n12phonenumbers12_GLOBAL__N_110NumberTestESaIS3_EEC2Ev(ptr noundef nonnull align 8 dereferenceable(24) %0) unnamed_addr #5 align 2 {
  %2 = alloca ptr, align 8
  store ptr %0, ptr %2, align 8
  %3 = load ptr, ptr %2, align 8
  call void @_ZNSt12_Vector_baseIN4i18n12phonenumbers12_GLOBAL__N_110NumberTestESaIS3_EEC2Ev(ptr noundef nonnull align 8 dereferenceable(24) %3) #3
  ret void
}

; Function Attrs: mustprogress uwtable
define dso_local void @_ZN4i18n12phonenumbers55PhoneNumberMatcherTest_MatchesWithPossibleLeniency_Test8TestBodyEv(ptr noundef nonnull align 8 dereferenceable(148) %0) unnamed_addr #4 align 2 personality ptr @__gxx_personality_v0 {
  %2 = alloca ptr, align 8
  %3 = alloca %"class.std::vector.54", align 8
  %4 = alloca %"class.__gnu_cxx::__normal_iterator.59", align 8
  %5 = alloca %"class.__gnu_cxx::__normal_iterator", align 8
  %6 = alloca ptr, align 8
  %7 = alloca i32, align 4
  %8 = alloca %"class.__gnu_cxx::__normal_iterator", align 8
  %9 = alloca %"class.__gnu_cxx::__normal_iterator.59", align 8
  %10 = alloca %"class.__gnu_cxx::__normal_iterator", align 8
  %11 = alloca %"class.__gnu_cxx::__normal_iterator", align 8
  %12 = alloca %"class.__gnu_cxx::__normal_iterator.59", align 8
  %13 = alloca %"class.__gnu_cxx::__normal_iterator", align 8
  %14 = alloca %"class.__gnu_cxx::__normal_iterator", align 8
  %15 = alloca %"class.__gnu_cxx::__normal_iterator.59", align 8
  %16 = alloca %"class.__gnu_cxx::__normal_iterator", align 8
  %17 = alloca %"class.__gnu_cxx::__normal_iterator", align 8
  store ptr %0, ptr %2, align 8
  %18 = load ptr, ptr %2, align 8
  call void @_ZNSt6vectorIN4i18n12phonenumbers12_GLOBAL__N_110NumberTestESaIS3_EEC2Ev(ptr noundef nonnull align 8 dereferenceable(24) %3) #3
  %19 = call ptr @_ZNSt6vectorIN4i18n12phonenumbers12_GLOBAL__N_110NumberTestESaIS3_EE5beginEv(ptr noundef nonnull align 8 dereferenceable(24) %3) #3
  %20 = getelementptr inbounds %"class.__gnu_cxx::__normal_iterator", ptr %5, i32 0, i32 0
  store ptr %19, ptr %20, align 8
  call void @_ZN9__gnu_cxx17__normal_iteratorIPKN4i18n12phonenumbers12_GLOBAL__N_110NumberTestESt6vectorIS4_SaIS4_EEEC2IPS4_vEERKNS0_IT_S9_EE(ptr noundef nonnull align 8 dereferenceable(8) %4, ptr noundef nonnull align 8 dereferenceable(8) %5) #3
  %21 = getelementptr inbounds %"class.__gnu_cxx::__normal_iterator.59", ptr %4, i32 0, i32 0
  %22 = load ptr, ptr %21, align 8
  %23 = invoke ptr @_ZNSt6vectorIN4i18n12phonenumbers12_GLOBAL__N_110NumberTestESaIS3_EE6insertIPKS3_vEEN9__gnu_cxx17__normal_iteratorIPS3_S5_EENSA_IS8_S5_EET_SE_(ptr noundef nonnull align 8 dereferenceable(24) %3, ptr %22, ptr noundef @_ZN4i18n12phonenumbersL18kPossibleOnlyCasesE, ptr noundef getelementptr inbounds (%"struct.i18n::phonenumbers::(anonymous namespace)::NumberTest", ptr @_ZN4i18n12phonenumbersL18kPossibleOnlyCasesE, i64 5))
          to label %24 unwind label %48

24:                                               ; preds = %1
  %25 = getelementptr inbounds %"class.__gnu_cxx::__normal_iterator", ptr %8, i32 0, i32 0
  store ptr %23, ptr %25, align 8
  %26 = call ptr @_ZNSt6vectorIN4i18n12phonenumbers12_GLOBAL__N_110NumberTestESaIS3_EE5beginEv(ptr noundef nonnull align 8 dereferenceable(24) %3) #3
  %27 = getelementptr inbounds %"class.__gnu_cxx::__normal_iterator", ptr %10, i32 0, i32 0
  store ptr %26, ptr %27, align 8
  call void @_ZN9__gnu_cxx17__normal_iteratorIPKN4i18n12phonenumbers12_GLOBAL__N_110NumberTestESt6vectorIS4_SaIS4_EEEC2IPS4_vEERKNS0_IT_S9_EE(ptr noundef nonnull align 8 dereferenceable(8) %9, ptr noundef nonnull align 8 dereferenceable(8) %10) #3
  %28 = getelementptr inbounds %"class.__gnu_cxx::__normal_iterator.59", ptr %9, i32 0, i32 0
  %29 = load ptr, ptr %28, align 8
  %30 = invoke ptr @_ZNSt6vectorIN4i18n12phonenumbers12_GLOBAL__N_110NumberTestESaIS3_EE6insertIPKS3_vEEN9__gnu_cxx17__normal_iteratorIPS3_S5_EENSA_IS8_S5_EET_SE_(ptr noundef nonnull align 8 dereferenceable(24) %3, ptr %29, ptr noundef @_ZN4i18n12phonenumbersL11kValidCasesE, ptr noundef getelementptr inbounds (%"struct.i18n::phonenumbers::(anonymous namespace)::NumberTest", ptr @_ZN4i18n12phonenumbersL11kValidCasesE, i64 19))
          to label %31 unwind label %48

31:                                               ; preds = %24
  %32 = getelementptr inbounds %"class.__gnu_cxx::__normal_iterator", ptr %11, i32 0, i32 0
  store ptr %30, ptr %32, align 8
  %33 = call ptr @_ZNSt6vectorIN4i18n12phonenumbers12_GLOBAL__N_110NumberTestESaIS3_EE5beginEv(ptr noundef nonnull align 8 dereferenceable(24) %3) #3
  %34 = getelementptr inbounds %"class.__gnu_cxx::__normal_iterator", ptr %13, i32 0, i32 0
  store ptr %33, ptr %34, align 8
  call void @_ZN9__gnu_cxx17__normal_iteratorIPKN4i18n12phonenumbers12_GLOBAL__N_110NumberTestESt6vectorIS4_SaIS4_EEEC2IPS4_vEERKNS0_IT_S9_EE(ptr noundef nonnull align 8 dereferenceable(8) %12, ptr noundef nonnull align 8 dereferenceable(8) %13) #3
  %35 = getelementptr inbounds %"class.__gnu_cxx::__normal_iterator.59", ptr %12, i32 0, i32 0
  %36 = load ptr, ptr %35, align 8
  %37 = invoke ptr @_ZNSt6vectorIN4i18n12phonenumbers12_GLOBAL__N_110NumberTestESaIS3_EE6insertIPKS3_vEEN9__gnu_cxx17__normal_iteratorIPS3_S5_EENSA_IS8_S5_EET_SE_(ptr noundef nonnull align 8 dereferenceable(24) %3, ptr %36, ptr noundef @_ZN4i18n12phonenumbersL20kStrictGroupingCasesE, ptr noundef getelementptr inbounds (%"struct.i18n::phonenumbers::(anonymous namespace)::NumberTest", ptr @_ZN4i18n12phonenumbersL20kStrictGroupingCasesE, i64 7))
          to label %38 unwind label %48

38:                                               ; preds = %31
  %39 = getelementptr inbounds %"class.__gnu_cxx::__normal_iterator", ptr %14, i32 0, i32 0
  store ptr %37, ptr %39, align 8
  %40 = call ptr @_ZNSt6vectorIN4i18n12phonenumbers12_GLOBAL__N_110NumberTestESaIS3_EE5beginEv(ptr noundef nonnull align 8 dereferenceable(24) %3) #3
  %41 = getelementptr inbounds %"class.__gnu_cxx::__normal_iterator", ptr %16, i32 0, i32 0
  store ptr %40, ptr %41, align 8
  call void @_ZN9__gnu_cxx17__normal_iteratorIPKN4i18n12phonenumbers12_GLOBAL__N_110NumberTestESt6vectorIS4_SaIS4_EEEC2IPS4_vEERKNS0_IT_S9_EE(ptr noundef nonnull align 8 dereferenceable(8) %15, ptr noundef nonnull align 8 dereferenceable(8) %16) #3
  %42 = getelementptr inbounds %"class.__gnu_cxx::__normal_iterator.59", ptr %15, i32 0, i32 0
  %43 = load ptr, ptr %42, align 8
  %44 = invoke ptr @_ZNSt6vectorIN4i18n12phonenumbers12_GLOBAL__N_110NumberTestESaIS3_EE6insertIPKS3_vEEN9__gnu_cxx17__normal_iteratorIPS3_S5_EENSA_IS8_S5_EET_SE_(ptr noundef nonnull align 8 dereferenceable(24) %3, ptr %43, ptr noundef @_ZN4i18n12phonenumbersL19kExactGroupingCasesE, ptr noundef getelementptr inbounds (%"struct.i18n::phonenumbers::(anonymous namespace)::NumberTest", ptr @_ZN4i18n12phonenumbersL19kExactGroupingCasesE, i64 25))
          to label %45 unwind label %48

45:                                               ; preds = %38
  %46 = getelementptr inbounds %"class.__gnu_cxx::__normal_iterator", ptr %17, i32 0, i32 0
  store ptr %44, ptr %46, align 8
  invoke void @_ZNK4i18n12phonenumbers22PhoneNumberMatcherTest30DoTestNumberMatchesForLeniencyERKSt6vectorINS0_12_GLOBAL__N_110NumberTestESaIS4_EENS0_18PhoneNumberMatcher8LeniencyE(ptr noundef nonnull align 8 dereferenceable(148) %18, ptr noundef nonnull align 8 dereferenceable(24) %3, i32 noundef 0)
          to label %47 unwind label %48

47:                                               ; preds = %45
  call void @_ZNSt6vectorIN4i18n12phonenumbers12_GLOBAL__N_110NumberTestESaIS3_EED2Ev(ptr noundef nonnull align 8 dereferenceable(24) %3) #3
  ret void

48:                                               ; preds = %45, %38, %31, %24, %1
  %49 = landingpad { ptr, i32 }
          cleanup
  %50 = extractvalue { ptr, i32 } %49, 0
  store ptr %50, ptr %6, align 8
  %51 = extractvalue { ptr, i32 } %49, 1
  store i32 %51, ptr %7, align 4
  call void @_ZNSt6vectorIN4i18n12phonenumbers12_GLOBAL__N_110NumberTestESaIS3_EED2Ev(ptr noundef nonnull align 8 dereferenceable(24) %3) #3
  br label %52

52:                                               ; preds = %48
  %53 = load ptr, ptr %6, align 8
  %54 = load i32, ptr %7, align 4
  %55 = insertvalue { ptr, i32 } poison, ptr %53, 0
  %56 = insertvalue { ptr, i32 } %55, i32 %54, 1
  resume { ptr, i32 } %56
}